#include <math.h>
#include <stdio.h>
#include <stdlib.h>
#include <string.h>

	
int main(){
	int i,j,k=0,len1,len2,temp=0;
	char str1[600],str2[600];
	double p;
	scanf("%lf",&p);
	scanf("%s%s",str1,str2);
	len1=strlen(str1);
	len2=strlen(str2);
	if(len1!=len2){
	  printf("error");
	}
	else {
		for(i=0;i<len1;i++){
			if((str1[i]!='A'&&str1[i]!='T'&&str1[i]!='C'&&str1[i]!='G')||(str2[i]!='A'&&str2[i]!='T'&&str2[i]!='C'&&str2[i]!='G')){
			  printf("error");
			  temp=1;
			  break;
		
			}
			if(str1[i]==str2[i]){
			  k++;
			}
		}
		if(temp==0){

		  if(k*1.0/len1>p){
		  printf("yes");
		  }
		  else if(k*1.0/len1<=p){
		   printf("no");
		  }
		}
	}






	return 0;
}